; Function Attrs: mustprogress uwtable
define void @_ZNK32pxrInternal_v0_24__pxrReserved__24PcpErrorInvalidAssetPath8ToStringB5cxx11Ev(ptr dead_on_unwind noalias writable sret(%"class.std::__cxx11::basic_string") align 8 %0, ptr noundef nonnull align 8 dereferenceable(320) %1) unnamed_addr #0 align 2 personality ptr @__gxx_personality_v0 {
  %3 = alloca %"class.std::__cxx11::basic_ostringstream", align 8
  %4 = alloca %"class.std::__cxx11::basic_string", align 8
  %5 = alloca %"class.std::__cxx11::basic_string", align 8
  %6 = alloca %"class.pxrInternal_v0_24__pxrReserved__::PcpSite", align 8
  %7 = getelementptr inbounds nuw i8, ptr %1, i64 232
  %8 = tail call noundef ptr @_ZNKSt7__cxx1112basic_stringIcSt11char_traitsIcESaIcEE5c_strEv(ptr noundef nonnull align 8 dereferenceable(32) %7) #19
  %9 = getelementptr inbounds nuw i8, ptr %1, i64 280
  %10 = load i32, ptr %9, align 8
  call void @_ZN32pxrInternal_v0_24__pxrReserved__6TfEnum14GetDisplayNameB5cxx11ES0_(ptr dead_on_unwind nonnull writable sret(%"class.std::__cxx11::basic_string") align 8 %4, ptr nonnull @_ZTIN32pxrInternal_v0_24__pxrReserved__10PcpArcTypeE, i32 %10)
  %11 = call noundef ptr @_ZNKSt7__cxx1112basic_stringIcSt11char_traitsIcESaIcEE5c_strEv(ptr noundef nonnull align 8 dereferenceable(32) %4) #19
  %12 = getelementptr inbounds nuw i8, ptr %1, i64 264
  %13 = getelementptr inbounds i8, ptr %1, i64 184
  invoke void @_ZN32pxrInternal_v0_24__pxrReserved__7PcpSiteC1ERKNS_9TfWeakPtrINS_8SdfLayerEEERKNS_7SdfPathE(ptr noundef nonnull align 8 dereferenceable(88) %6, ptr noundef nonnull align 8 dereferenceable(16) %12, ptr noundef nonnull align 4 dereferenceable(8) %13)
          to label %14 unwind label %45

14:                                               ; preds = %2
  call void @llvm.lifetime.start.p0(i64 376, ptr nonnull %3)
  invoke void @_ZNSt7__cxx1119basic_ostringstreamIcSt11char_traitsIcESaIcEEC1Ev(ptr noundef nonnull align 8 dereferenceable(112) %3)
          to label %.noexc unwind label %47

.noexc:                                           ; preds = %14
  %15 = invoke noundef nonnull align 8 dereferenceable(8) ptr @_ZN32pxrInternal_v0_24__pxrReserved__lsERSoRKNS_7PcpSiteE(ptr noundef nonnull align 8 dereferenceable(8) %3, ptr noundef nonnull align 8 dereferenceable(88) %6)
          to label %16 unwind label %17, !noalias !31

16:                                               ; preds = %.noexc
  invoke void @_ZNKSt7__cxx1119basic_ostringstreamIcSt11char_traitsIcESaIcEE3strEv(ptr dead_on_unwind nonnull writable sret(%"class.std::__cxx11::basic_string") align 8 %5, ptr noundef nonnull align 8 dereferenceable(112) %3)
          to label %19 unwind label %17

17:                                               ; preds = %16, %.noexc
  %18 = landingpad { ptr, i32 }
          cleanup
  call void @_ZNSt7__cxx1119basic_ostringstreamIcSt11char_traitsIcESaIcEED1Ev(ptr noundef nonnull align 8 dereferenceable(112) %3) #19
  br label %.body

19:                                               ; preds = %16
  call void @_ZNSt7__cxx1119basic_ostringstreamIcSt11char_traitsIcESaIcEED1Ev(ptr noundef nonnull align 8 dereferenceable(112) %3) #19
  call void @llvm.lifetime.end.p0(i64 376, ptr nonnull %3)
  %20 = call noundef ptr @_ZNKSt7__cxx1112basic_stringIcSt11char_traitsIcESaIcEE5c_strEv(ptr noundef nonnull align 8 dereferenceable(32) %5) #19
  %21 = getelementptr inbounds nuw i8, ptr %1, i64 288
  %22 = call noundef zeroext i1 @_ZNKSt7__cxx1112basic_stringIcSt11char_traitsIcESaIcEE5emptyEv(ptr noundef nonnull align 8 dereferenceable(32) %21) #19
  %23 = select i1 %22, ptr @.str.29, ptr @.str.30
  %24 = call noundef ptr @_ZNKSt7__cxx1112basic_stringIcSt11char_traitsIcESaIcEE5c_strEv(ptr noundef nonnull align 8 dereferenceable(32) %21) #19
  invoke void (ptr, ptr, ...) @_ZN32pxrInternal_v0_24__pxrReserved__14TfStringPrintfB5cxx11EPKcz(ptr dead_on_unwind writable sret(%"class.std::__cxx11::basic_string") align 8 %0, ptr noundef nonnull @.str.28, ptr noundef %8, ptr noundef %11, ptr noundef %20, ptr noundef nonnull %23, ptr noundef %24)
          to label %25 unwind label %49

25:                                               ; preds = %19
  call void @_ZNSt7__cxx1112basic_stringIcSt11char_traitsIcESaIcEED1Ev(ptr noundef nonnull align 8 dereferenceable(32) %5) #19
  %26 = getelementptr inbounds nuw i8, ptr %6, i64 80
  %27 = load i32, ptr %26, align 8
  %.not.i.i.i = icmp eq i32 %27, 0
  br i1 %.not.i.i.i, label %_ZN32pxrInternal_v0_24__pxrReserved__7PcpSiteD2Ev.exit, label %28

28:                                               ; preds = %25
  %29 = and i32 %27, 255
  %30 = lshr i32 %27, 8
  %31 = zext nneg i32 %29 to i64
  %32 = getelementptr inbounds [257 x ptr], ptr @_ZN32pxrInternal_v0_24__pxrReserved__8Sdf_PoolINS_15Sdf_PathPrimTagELj24ELj8ELj16384EE13_regionStartsE, i64 0, i64 %31
  %33 = load ptr, ptr %32, align 8
  %34 = mul nuw nsw i32 %30, 24
  %35 = zext nneg i32 %34 to i64
  %36 = getelementptr inbounds i8, ptr %33, i64 %35
  %37 = getelementptr inbounds nuw i8, ptr %36, i64 8
  %38 = atomicrmw sub ptr %37, i32 1 seq_cst, align 4
  %39 = and i32 %38, 2147483647
  %40 = icmp eq i32 %39, 1
  br i1 %40, label %41, label %_ZN32pxrInternal_v0_24__pxrReserved__7PcpSiteD2Ev.exit

41:                                               ; preds = %28
  invoke void @_ZNK32pxrInternal_v0_24__pxrReserved__12Sdf_PathNode8_DestroyEv(ptr noundef nonnull align 8 dereferenceable(16) %36)
          to label %_ZN32pxrInternal_v0_24__pxrReserved__7PcpSiteD2Ev.exit unwind label %42

42:                                               ; preds = %41
  %43 = landingpad { ptr, i32 }
          catch ptr null
  %44 = extractvalue { ptr, i32 } %43, 0
  call void @__clang_call_terminate(ptr %44) #18
  unreachable

_ZN32pxrInternal_v0_24__pxrReserved__7PcpSiteD2Ev.exit: ; preds = %25, %28, %41
  call void @_ZN32pxrInternal_v0_24__pxrReserved__23PcpLayerStackIdentifierD2Ev(ptr noundef nonnull align 8 dereferenceable(80) %6) #19
  call void @_ZNSt7__cxx1112basic_stringIcSt11char_traitsIcESaIcEED1Ev(ptr noundef nonnull align 8 dereferenceable(32) %4) #19
  ret void

45:                                               ; preds = %2
  %46 = landingpad { ptr, i32 }
          cleanup
  br label %51

47:                                               ; preds = %14
  %48 = landingpad { ptr, i32 }
          cleanup
  br label %.body

49:                                               ; preds = %19
  %50 = landingpad { ptr, i32 }
          cleanup
  call void @_ZNSt7__cxx1112basic_stringIcSt11char_traitsIcESaIcEED1Ev(ptr noundef nonnull align 8 dereferenceable(32) %5) #19
  br label %.body

.body:                                            ; preds = %47, %17, %49
  %.pn = phi { ptr, i32 } [ %50, %49 ], [ %48, %47 ], [ %18, %17 ]
  call void @_ZN32pxrInternal_v0_24__pxrReserved__7PcpSiteD2Ev(ptr noundef nonnull align 8 dereferenceable(88) %6) #19
  br label %51

51:                                               ; preds = %.body, %45
  %.pn.pn = phi { ptr, i32 } [ %.pn, %.body ], [ %46, %45 ]
  call void @_ZNSt7__cxx1112basic_stringIcSt11char_traitsIcESaIcEED1Ev(ptr noundef nonnull align 8 dereferenceable(32) %4) #19
  resume { ptr, i32 } %.pn.pn
}